target datalayout = "e-m:e-p270:32:32-p271:32:32-p272:64:64-i64:64-i128:128-f80:128-n8:16:32:64-S128"
target triple = "x86_64-pc-linux-gnu"

%struct.ImVec4 = type { float, float, float, float }
%struct.ImVector = type { i32, i32, ptr }
%struct.ImDrawList = type { %struct.ImVector.0, %struct.ImVector.1, %struct.ImVector.2, i32, i32, ptr, ptr, ptr, %struct.ImVector, %struct.ImDrawCmdHeader, %struct.ImDrawListSplitter, %struct.ImVector.4, %struct.ImVector.5, float, ptr }
%struct.ImVector.0 = type { i32, i32, ptr }
%struct.ImVector.1 = type { i32, i32, ptr }
%struct.ImVector.2 = type { i32, i32, ptr }
%struct.ImDrawCmdHeader = type <{ %struct.ImVec4, ptr, i32, [4 x i8] }>
%struct.ImDrawListSplitter = type { i32, i32, %struct.ImVector.3 }
%struct.ImVector.3 = type { i32, i32, ptr }
%struct.ImVector.4 = type { i32, i32, ptr }
%struct.ImVector.5 = type { i32, i32, ptr }

; Function Attrs: inlinehint mustprogress uwtable
define linkonce_odr dso_local void @_ZN10ImDrawList10PathStrokeEjif(ptr noundef nonnull align 8 dereferenceable(200) %0, i32 noundef %1, i32 noundef %2, float noundef %3) #5 comdat align 2 {
  %5 = alloca ptr, align 8
  %6 = alloca i32, align 4
  %7 = alloca i32, align 4
  %8 = alloca float, align 4
  store ptr %0, ptr %5, align 8, !tbaa !43
  store i32 %1, ptr %6, align 4, !tbaa !21
  store i32 %2, ptr %7, align 4, !tbaa !21
  store float %3, ptr %8, align 4, !tbaa !12
  %9 = load ptr, ptr %5, align 8
  %10 = getelementptr inbounds nuw %struct.ImDrawList, ptr %9, i32 0, i32 8
  %11 = getelementptr inbounds nuw %struct.ImVector, ptr %10, i32 0, i32 2
  %12 = load ptr, ptr %11, align 8, !tbaa !161
  %13 = getelementptr inbounds nuw %struct.ImDrawList, ptr %9, i32 0, i32 8
  %14 = getelementptr inbounds nuw %struct.ImVector, ptr %13, i32 0, i32 0
  %15 = load i32, ptr %14, align 8, !tbaa !160
  %16 = load i32, ptr %6, align 4, !tbaa !21
  %17 = load i32, ptr %7, align 4, !tbaa !21
  %18 = load float, ptr %8, align 4, !tbaa !12
  call void @_ZN10ImDrawList11AddPolylineEPK6ImVec2ijif(ptr noundef nonnull align 8 dereferenceable(200) %9, ptr noundef %12, i32 noundef %15, i32 noundef %16, i32 noundef %17, float noundef %18)
  %19 = getelementptr inbounds nuw %struct.ImDrawList, ptr %9, i32 0, i32 8
  %20 = getelementptr inbounds nuw %struct.ImVector, ptr %19, i32 0, i32 0
  store i32 0, ptr %20, align 8, !tbaa !160
  ret void
}

; Function Attrs: inlinehint mustprogress nounwind uwtable
define internal noundef i32 @_ZL7ImClampIiET_S0_S0_S0_(i32 noundef %0, i32 noundef %1, i32 noundef %2) #7 {
  %4 = alloca i32, align 4
  %5 = alloca i32, align 4
  %6 = alloca i32, align 4
  store i32 %0, ptr %4, align 4, !tbaa !21
  store i32 %1, ptr %5, align 4, !tbaa !21
  store i32 %2, ptr %6, align 4, !tbaa !21
  %7 = load i32, ptr %4, align 4, !tbaa !21
  %8 = load i32, ptr %5, align 4, !tbaa !21
  %9 = icmp slt i32 %7, %8
  br i1 %9, label %10, label %12

10:                                               ; preds = %3
  %11 = load i32, ptr %5, align 4, !tbaa !21
  br label %22

12:                                               ; preds = %3
  %13 = load i32, ptr %4, align 4, !tbaa !21
  %14 = load i32, ptr %6, align 4, !tbaa !21
  %15 = icmp sgt i32 %13, %14
  br i1 %15, label %16, label %18

16:                                               ; preds = %12
  %17 = load i32, ptr %6, align 4, !tbaa !21
  br label %20

18:                                               ; preds = %12
  %19 = load i32, ptr %4, align 4, !tbaa !21
  br label %20

20:                                               ; preds = %18, %16
  %21 = phi i32 [ %17, %16 ], [ %19, %18 ]
  br label %22

22:                                               ; preds = %20, %10
  %23 = phi i32 [ %11, %10 ], [ %21, %20 ]
  ret i32 %23
}

; Function Attrs: mustprogress uwtable
define dso_local void @_ZN10ImDrawList9AddCircleERK6ImVec2fjif(ptr noundef nonnull align 8 dereferenceable(200) %0, ptr noundef nonnull align 4 dereferenceable(8) %1, float noundef %2, i32 noundef %3, i32 noundef %4, float noundef %5) #6 align 2 {
  %7 = alloca ptr, align 8
  %8 = alloca ptr, align 8
  %9 = alloca float, align 4
  %10 = alloca i32, align 4
  %11 = alloca i32, align 4
  %12 = alloca float, align 4
  %13 = alloca float, align 4
  store ptr %0, ptr %7, align 8, !tbaa !43
  store ptr %1, ptr %8, align 8, !tbaa !33
  store float %2, ptr %9, align 4, !tbaa !12
  store i32 %3, ptr %10, align 4, !tbaa !21
  store i32 %4, ptr %11, align 4, !tbaa !21
  store float %5, ptr %12, align 4, !tbaa !12
  %14 = load ptr, ptr %7, align 8
  %15 = load i32, ptr %10, align 4, !tbaa !21
  %16 = and i32 %15, -16777216
  %17 = icmp eq i32 %16, 0
  br i1 %17, label %21, label %18

18:                                               ; preds = %6
  %19 = load float, ptr %9, align 4, !tbaa !12
  %20 = fcmp olt float %19, 5.000000e-01
  br i1 %20, label %21, label %22

21:                                               ; preds = %18, %6
  br label %52

22:                                               ; preds = %18
  %23 = load i32, ptr %11, align 4, !tbaa !21
  %24 = icmp sle i32 %23, 0
  br i1 %24, label %25, label %33

25:                                               ; preds = %22
  %26 = load ptr, ptr %8, align 8, !tbaa !33
  %27 = load float, ptr %9, align 4, !tbaa !12
  %28 = fsub float %27, 5.000000e-01
  call void @_ZN10ImDrawList16_PathArcToFastExERK6ImVec2fiii(ptr noundef nonnull align 8 dereferenceable(200) %14, ptr noundef nonnull align 4 dereferenceable(8) %26, float noundef %28, i32 noundef 0, i32 noundef 48, i32 noundef 0)
  %29 = getelementptr inbounds nuw %struct.ImDrawList, ptr %14, i32 0, i32 8
  %30 = getelementptr inbounds nuw %struct.ImVector, ptr %29, i32 0, i32 0
  %31 = load i32, ptr %30, align 8, !tbaa !160
  %32 = add nsw i32 %31, -1
  store i32 %32, ptr %30, align 8, !tbaa !160
  br label %49

33:                                               ; preds = %22
  %34 = load i32, ptr %11, align 4, !tbaa !21
  %35 = call noundef i32 @_ZL7ImClampIiET_S0_S0_S0_(i32 noundef %34, i32 noundef 3, i32 noundef 512)
  store i32 %35, ptr %11, align 4, !tbaa !21
  call void @llvm.lifetime.start.p0(i64 4, ptr %13) #17
  %36 = load i32, ptr %11, align 4, !tbaa !21
  %37 = sitofp i32 %36 to float
  %38 = fsub float %37, 1.000000e+00
  %39 = fmul float 0x401921FB60000000, %38
  %40 = load i32, ptr %11, align 4, !tbaa !21
  %41 = sitofp i32 %40 to float
  %42 = fdiv float %39, %41
  store float %42, ptr %13, align 4, !tbaa !12
  %43 = load ptr, ptr %8, align 8, !tbaa !33
  %44 = load float, ptr %9, align 4, !tbaa !12
  %45 = fsub float %44, 5.000000e-01
  %46 = load float, ptr %13, align 4, !tbaa !12
  %47 = load i32, ptr %11, align 4, !tbaa !21
  %48 = sub nsw i32 %47, 1
  call void @_ZN10ImDrawList9PathArcToERK6ImVec2fffi(ptr noundef nonnull align 8 dereferenceable(200) %14, ptr noundef nonnull align 4 dereferenceable(8) %43, float noundef %45, float noundef 0.000000e+00, float noundef %46, i32 noundef %48)
  call void @llvm.lifetime.end.p0(i64 4, ptr %13) #17
  br label %49

49:                                               ; preds = %33, %25
  %50 = load i32, ptr %10, align 4, !tbaa !21
  %51 = load float, ptr %12, align 4, !tbaa !12
  call void @_ZN10ImDrawList10PathStrokeEjif(ptr noundef nonnull align 8 dereferenceable(200) %14, i32 noundef %50, i32 noundef 1, float noundef %51)
  br label %52

52:                                               ; preds = %49, %21
  ret void
}