; Function Attrs: mustprogress uwtable
define dso_local void @_ZN10ImDrawList9AddCircleERK6ImVec2fjif(ptr noundef nonnull align 8 captures(none) dereferenceable(200) %0, ptr noundef nonnull readonly align 4 captures(none) dereferenceable(8) %1, float noundef %2, i32 noundef %3, i32 noundef %4, float noundef %5) local_unnamed_addr #9 align 2 {
  %7 = icmp ult i32 %3, 16777216
  %8 = fcmp olt float %2, 5.000000e-01
  %or.cond = or i1 %8, %7
  br i1 %or.cond, label %30, label %9

9:                                                ; preds = %6
  %10 = icmp slt i32 %4, 1
  br i1 %10, label %11, label %16

11:                                               ; preds = %9
  %12 = fadd float %2, -5.000000e-01
  tail call void @_ZN10ImDrawList16_PathArcToFastExERK6ImVec2fiii(ptr noundef nonnull align 8 dereferenceable(200) %0, ptr noundef nonnull align 4 dereferenceable(8) %1, float noundef %12, i32 noundef 0, i32 noundef 48, i32 noundef 0)
  %13 = getelementptr inbounds nuw i8, ptr %0, i64 80
  %14 = load i32, ptr %13, align 8, !tbaa !124
  %15 = add nsw i32 %14, -1
  store i32 %15, ptr %13, align 8, !tbaa !124
  br label %25

16:                                               ; preds = %9
  %17 = tail call i32 @llvm.umin.i32(i32 %4, i32 512)
  %18 = tail call i32 @llvm.umax.i32(i32 %17, i32 3)
  %19 = uitofp nneg i32 %18 to float
  %20 = add nsw i32 %18, -1
  %21 = uitofp nneg i32 %20 to float
  %22 = fmul float %21, 0x401921FB60000000
  %23 = fdiv float %22, %19
  %24 = fadd float %2, -5.000000e-01
  tail call void @_ZN10ImDrawList9PathArcToERK6ImVec2fffi(ptr noundef nonnull align 8 dereferenceable(200) %0, ptr noundef nonnull align 4 dereferenceable(8) %1, float noundef %24, float noundef 0.000000e+00, float noundef %23, i32 noundef %20)
  %.phi.trans.insert = getelementptr inbounds nuw i8, ptr %0, i64 80
  %.pre = load i32, ptr %.phi.trans.insert, align 8, !tbaa !124
  br label %25

25:                                               ; preds = %16, %11
  %26 = phi i32 [ %.pre, %16 ], [ %15, %11 ]
  %27 = getelementptr inbounds nuw i8, ptr %0, i64 80
  %28 = getelementptr inbounds nuw i8, ptr %0, i64 88
  %29 = load ptr, ptr %28, align 8, !tbaa !125
  tail call void @_ZN10ImDrawList11AddPolylineEPK6ImVec2ijif(ptr noundef nonnull align 8 dereferenceable(200) %0, ptr noundef %29, i32 noundef %26, i32 noundef %3, i32 noundef 1, float noundef %5)
  store i32 0, ptr %27, align 8, !tbaa !124
  br label %30

30:                                               ; preds = %6, %25
  ret void
}